; ModuleID = '11/854.c'
source_filename = "11/854.c"
target datalayout = "e-m:e-p270:32:32-p271:32:32-p272:64:64-i64:64-f80:128-n8:16:32:64-S128"
target triple = "x86_64-pc-linux-gnu"

@.str = private unnamed_addr constant [9 x i8] c"%d %d %d\00", align 1
@.str.1 = private unnamed_addr constant [3 x i8] c"%d\00", align 1

; Function Attrs: noinline nounwind uwtable
define dso_local i32 @main() #0 {
  %1 = alloca i32, align 4
  %2 = alloca i32, align 4
  %3 = alloca i32, align 4
  %4 = alloca i32, align 4
  %5 = alloca i32, align 4
  %6 = alloca i32, align 4
  %7 = alloca i32, align 4
  store i32 0, i32* %1, align 4
  store i32 0, i32* %5, align 4
  store i32 0, i32* %6, align 4
  %8 = call i32 (i8*, ...) @__isoc99_scanf(i8* getelementptr inbounds ([9 x i8], [9 x i8]* @.str, i64 0, i64 0), i32* %2, i32* %3, i32* %4)
  %9 = load i32, i32* %2, align 4
  %10 = srem i32 %9, 4
  %11 = icmp eq i32 %10, 0
  br i1 %11, label %12, label %16

12:                                               ; preds = %0
  %13 = load i32, i32* %2, align 4
  %14 = srem i32 %13, 100
  %15 = icmp ne i32 %14, 0
  br i1 %15, label %20, label %16

16:                                               ; preds = %12, %0
  %17 = load i32, i32* %2, align 4
  %18 = srem i32 %17, 400
  %19 = icmp eq i32 %18, 0
  br i1 %19, label %20, label %21

20:                                               ; preds = %16, %12
  store i32 1, i32* %6, align 4
  br label %21

21:                                               ; preds = %20, %16
  store i32 1, i32* %7, align 4
  br label %22

22:                                               ; preds = %82, %21
  %23 = load i32, i32* %7, align 4
  %24 = load i32, i32* %3, align 4
  %25 = icmp slt i32 %23, %24
  br i1 %25, label %26, label %85

26:                                               ; preds = %22
  %27 = load i32, i32* %7, align 4
  %28 = icmp eq i32 %27, 1
  br i1 %28, label %47, label %29

29:                                               ; preds = %26
  %30 = load i32, i32* %7, align 4
  %31 = icmp eq i32 %30, 3
  br i1 %31, label %47, label %32

32:                                               ; preds = %29
  %33 = load i32, i32* %7, align 4
  %34 = icmp eq i32 %33, 5
  br i1 %34, label %47, label %35

35:                                               ; preds = %32
  %36 = load i32, i32* %7, align 4
  %37 = icmp eq i32 %36, 7
  br i1 %37, label %47, label %38

38:                                               ; preds = %35
  %39 = load i32, i32* %7, align 4
  %40 = icmp eq i32 %39, 8
  br i1 %40, label %47, label %41

41:                                               ; preds = %38
  %42 = load i32, i32* %7, align 4
  %43 = icmp eq i32 %42, 10
  br i1 %43, label %47, label %44

44:                                               ; preds = %41
  %45 = load i32, i32* %7, align 4
  %46 = icmp eq i32 %45, 12
  br i1 %46, label %47, label %50

47:                                               ; preds = %44, %41, %38, %35, %32, %29, %26
  %48 = load i32, i32* %5, align 4
  %49 = add nsw i32 %48, 31
  store i32 %49, i32* %5, align 4
  br label %50

50:                                               ; preds = %47, %44
  %51 = load i32, i32* %7, align 4
  %52 = icmp eq i32 %51, 4
  br i1 %52, label %62, label %53

53:                                               ; preds = %50
  %54 = load i32, i32* %7, align 4
  %55 = icmp eq i32 %54, 6
  br i1 %55, label %62, label %56

56:                                               ; preds = %53
  %57 = load i32, i32* %7, align 4
  %58 = icmp eq i32 %57, 9
  br i1 %58, label %62, label %59

59:                                               ; preds = %56
  %60 = load i32, i32* %7, align 4
  %61 = icmp eq i32 %60, 11
  br i1 %61, label %62, label %65

62:                                               ; preds = %59, %56, %53, %50
  %63 = load i32, i32* %5, align 4
  %64 = add nsw i32 %63, 30
  store i32 %64, i32* %5, align 4
  br label %65

65:                                               ; preds = %62, %59
  %66 = load i32, i32* %7, align 4
  %67 = icmp eq i32 %66, 2
  br i1 %67, label %68, label %81

68:                                               ; preds = %65
  %69 = load i32, i32* %6, align 4
  %70 = icmp eq i32 %69, 0
  br i1 %70, label %71, label %74

71:                                               ; preds = %68
  %72 = load i32, i32* %5, align 4
  %73 = add nsw i32 %72, 28
  store i32 %73, i32* %5, align 4
  br label %74

74:                                               ; preds = %71, %68
  %75 = load i32, i32* %6, align 4
  %76 = icmp eq i32 %75, 1
  br i1 %76, label %77, label %80

77:                                               ; preds = %74
  %78 = load i32, i32* %5, align 4
  %79 = add nsw i32 %78, 29
  store i32 %79, i32* %5, align 4
  br label %80

80:                                               ; preds = %77, %74
  br label %81

81:                                               ; preds = %80, %65
  br label %82

82:                                               ; preds = %81
  %83 = load i32, i32* %7, align 4
  %84 = add nsw i32 %83, 1
  store i32 %84, i32* %7, align 4
  br label %22

85:                                               ; preds = %22
  %86 = load i32, i32* %5, align 4
  %87 = load i32, i32* %4, align 4
  %88 = add nsw i32 %86, %87
  store i32 %88, i32* %5, align 4
  %89 = load i32, i32* %5, align 4
  %90 = call i32 (i8*, ...) @printf(i8* getelementptr inbounds ([3 x i8], [3 x i8]* @.str.1, i64 0, i64 0), i32 %89)
  ret i32 0
}

declare dso_local i32 @__isoc99_scanf(i8*, ...) #1

declare dso_local i32 @printf(i8*, ...) #1


!llvm.module.flags = !{!0}
!llvm.ident = !{!1}

!0 = !{i32 1, !"wchar_size", i32 4}
!1 = !{!"clang version 10.0.0-4ubuntu1 "}
