; ModuleID = 'source-C-CXX/10/854.c'
source_filename = "source-C-CXX/10/854.c"
target datalayout = "e-m:e-p270:32:32-p271:32:32-p272:64:64-i64:64-f80:128-n8:16:32:64-S128"
target triple = "x86_64-pc-linux-gnu"

@.str = private unnamed_addr constant [9 x i8] c"%d %d %d\00", align 1
@.str.1 = private unnamed_addr constant [3 x i8] c"%d\00", align 1

; Function Attrs: nofree nounwind sspstrong uwtable
define dso_local i32 @main() local_unnamed_addr #0 {
  %1 = alloca i32, align 4
  %2 = alloca i32, align 4
  %3 = alloca i32, align 4
  %4 = bitcast i32* %1 to i8*
  call void @llvm.lifetime.start.p0i8(i64 4, i8* nonnull %4) #3
  %5 = bitcast i32* %2 to i8*
  call void @llvm.lifetime.start.p0i8(i64 4, i8* nonnull %5) #3
  %6 = bitcast i32* %3 to i8*
  call void @llvm.lifetime.start.p0i8(i64 4, i8* nonnull %6) #3
  %7 = call i32 (i8*, ...) @__isoc99_scanf(i8* getelementptr inbounds ([9 x i8], [9 x i8]* @.str, i64 0, i64 0), i32* nonnull %1, i32* nonnull %2, i32* nonnull %3)
  %8 = load i32, i32* %1, align 4, !tbaa !5
  %9 = and i32 %8, 3
  %10 = icmp eq i32 %9, 0
  %11 = srem i32 %8, 100
  %12 = icmp ne i32 %11, 0
  %13 = and i1 %10, %12
  %14 = srem i32 %8, 400
  %15 = icmp eq i32 %14, 0
  %16 = select i1 %13, i1 true, i1 %15
  %17 = load i32, i32* %2, align 4, !tbaa !5
  %18 = select i1 %16, i32 29, i32 28
  %19 = icmp sgt i32 %17, 1
  br i1 %19, label %20, label %42

20:                                               ; preds = %0, %20
  %21 = phi i32 [ %40, %20 ], [ 1, %0 ]
  %22 = phi i32 [ %39, %20 ], [ 0, %0 ]
  %23 = and i32 %21, 2147483645
  %24 = and i32 %21, 2147483641
  %25 = icmp eq i32 %24, 1
  %26 = icmp eq i32 %23, 8
  %27 = or i1 %26, %25
  %28 = icmp eq i32 %21, 12
  %29 = select i1 %27, i1 true, i1 %28
  %30 = add nsw i32 %22, 31
  %31 = select i1 %29, i32 %30, i32 %22
  %32 = icmp eq i32 %23, 4
  %33 = icmp eq i32 %23, 9
  %34 = or i1 %33, %32
  %35 = add nsw i32 %31, 30
  %36 = select i1 %34, i32 %35, i32 %31
  %37 = icmp eq i32 %21, 2
  %38 = select i1 %37, i32 %18, i32 0
  %39 = add nsw i32 %36, %38
  %40 = add nuw nsw i32 %21, 1
  %41 = icmp eq i32 %40, %17
  br i1 %41, label %42, label %20, !llvm.loop !9

42:                                               ; preds = %20, %0
  %43 = phi i32 [ 0, %0 ], [ %39, %20 ]
  %44 = load i32, i32* %3, align 4, !tbaa !5
  %45 = add nsw i32 %44, %43
  %46 = call i32 (i8*, ...) @printf(i8* nonnull dereferenceable(1) getelementptr inbounds ([3 x i8], [3 x i8]* @.str.1, i64 0, i64 0), i32 %45)
  call void @llvm.lifetime.end.p0i8(i64 4, i8* nonnull %6) #3
  call void @llvm.lifetime.end.p0i8(i64 4, i8* nonnull %5) #3
  call void @llvm.lifetime.end.p0i8(i64 4, i8* nonnull %4) #3
  ret i32 0
}

; Function Attrs: argmemonly mustprogress nofree nosync nounwind willreturn
declare void @llvm.lifetime.start.p0i8(i64 immarg, i8* nocapture) #1

; Function Attrs: nofree nounwind
declare noundef i32 @__isoc99_scanf(i8* nocapture noundef readonly, ...) local_unnamed_addr #2

; Function Attrs: nofree nounwind
declare noundef i32 @printf(i8* nocapture noundef readonly, ...) local_unnamed_addr #2

; Function Attrs: argmemonly mustprogress nofree nosync nounwind willreturn
declare void @llvm.lifetime.end.p0i8(i64 immarg, i8* nocapture) #1


!llvm.module.flags = !{!0, !1, !2, !3}
!llvm.ident = !{!4}

!0 = !{i32 1, !"wchar_size", i32 4}
!1 = !{i32 7, !"PIC Level", i32 2}
!2 = !{i32 7, !"PIE Level", i32 2}
!3 = !{i32 7, !"uwtable", i32 1}
!4 = !{!"clang version 13.0.0"}
!5 = !{!6, !6, i64 0}
!6 = !{!"int", !7, i64 0}
!7 = !{!"omnipotent char", !8, i64 0}
!8 = !{!"Simple C/C++ TBAA"}
!9 = distinct !{!9, !10}
!10 = !{!"llvm.loop.mustprogress"}
